; Function Attrs: mustprogress uwtable
define internal void @_ZN11opencv_testL56gtest_MatInfo_Size_Scale_NN_ResizeNNExact_EvalGenerator_Ev(ptr dead_on_unwind noalias writable sret(%"class.testing::internal::ParamGenerator.105") align 8 %0) #4 {
  %2 = alloca %"class.testing::internal::CartesianProductHolder3.268", align 8
  call void @llvm.lifetime.start.p0(i64 56, ptr nonnull %2) #31
  %.sroa.01.0.copyload = load i64, ptr @_ZN4perfL6sz720pE, align 8
  %.sroa.0.0.copyload = load i64, ptr @_ZN4perfL7sz1080pE, align 8
  store i32 0, ptr %2, align 8, !tbaa !246, !alias.scope !301
  %3 = getelementptr inbounds nuw i8, ptr %2, i64 4
  store i32 16, ptr %3, align 4, !tbaa !251, !alias.scope !301
  %4 = getelementptr inbounds nuw i8, ptr %2, i64 8
  store i32 24, ptr %4, align 8, !tbaa !252, !alias.scope !301
  %5 = getelementptr inbounds nuw i8, ptr %2, i64 12
  store i64 %.sroa.01.0.copyload, ptr %5, align 4, !alias.scope !301
  %6 = getelementptr inbounds nuw i8, ptr %2, i64 20
  store i64 %.sroa.0.0.copyload, ptr %6, align 4, !alias.scope !301
  %7 = getelementptr inbounds nuw i8, ptr %2, i64 32
  store double 2.500000e-01, ptr %7, align 8, !tbaa !253, !alias.scope !301
  %8 = getelementptr inbounds nuw i8, ptr %2, i64 40
  store double 5.000000e-01, ptr %8, align 8, !tbaa !255, !alias.scope !301
  %9 = getelementptr inbounds nuw i8, ptr %2, i64 48
  store double 2.000000e+00, ptr %9, align 8, !tbaa !256, !alias.scope !301
  call void @_ZNK7testing8internal23CartesianProductHolder3INS0_11ValueArray3IiiiEENS0_11ValueArray2IN2cv5Size_IiEES7_EENS2_IdddEEEcvNS0_14ParamGeneratorISt5tupleIJT_T0_T1_EEEEIN4perf7MatTypeES7_dEEv(ptr dead_on_unwind writable sret(%"class.testing::internal::ParamGenerator.105") align 8 %0, ptr noundef nonnull align 8 dereferenceable(56) %2)
  call void @llvm.lifetime.end.p0(i64 56, ptr nonnull %2) #31
  ret void
}